target datalayout = "e-m:e-p270:32:32-p271:32:32-p272:64:64-i64:64-i128:128-f80:128-n8:16:32:64-S128"
target triple = "x86_64-pc-linux-gnu"

%"class.net::SpdyFramerVisitorAdapter" = type { %"class.net::SpdyFramerVisitorInterface", ptr, ptr }
%"class.net::SpdyFramerVisitorInterface" = type { ptr }

; Function Attrs: mustprogress uwtable
define void @_ZN3net24SpdyFramerVisitorAdapter10OnSettingsEb(ptr noundef nonnull align 8 dereferenceable(24) %0, i1 noundef zeroext %1) unnamed_addr #2 align 2 {
  %3 = alloca ptr, align 8
  %4 = alloca i8, align 1
  store ptr %0, ptr %3, align 8, !tbaa !22
  %5 = zext i1 %1 to i8
  store i8 %5, ptr %4, align 1, !tbaa !19
  %6 = load ptr, ptr %3, align 8
  %7 = getelementptr inbounds nuw %"class.net::SpdyFramerVisitorAdapter", ptr %6, i32 0, i32 1
  %8 = load ptr, ptr %7, align 8, !tbaa !26
  %9 = load i8, ptr %4, align 1, !tbaa !19, !range !20, !noundef !21
  %10 = trunc i8 %9 to i1
  %11 = load ptr, ptr %8, align 8, !tbaa !8
  %12 = getelementptr inbounds ptr, ptr %11, i64 14
  %13 = load ptr, ptr %12, align 8
  call void %13(ptr noundef nonnull align 8 dereferenceable(8) %8, i1 noundef zeroext %10)
  ret void
}